; Function Attrs: mustprogress uwtable
define noundef i64 @_ZN4base18StatisticsRecorder17GetHistogramCountEv() local_unnamed_addr #0 align 2 personality ptr @__gxx_personality_v0 {
  %1 = load ptr, ptr @_ZN4base18StatisticsRecorder5lock_E, align 8, !tbaa !26
  %.not = icmp eq ptr %1, null
  br i1 %.not, label %_ZN4base8AutoLockD2Ev.exit, label %2

2:                                                ; preds = %0
  tail call void @_ZN4base8internal8LockImpl4LockEv(ptr noundef nonnull align 8 dereferenceable(40) %1)
  %3 = load ptr, ptr @_ZN4base18StatisticsRecorder11histograms_E, align 8, !tbaa !12
  %.not2 = icmp eq ptr %3, null
  br i1 %.not2, label %7, label %4

4:                                                ; preds = %2
  %5 = getelementptr inbounds nuw i8, ptr %3, i64 40
  %6 = load i64, ptr %5, align 8, !tbaa !89
  br label %7

7:                                                ; preds = %2, %4
  %.1 = phi i64 [ %6, %4 ], [ 0, %2 ]
  invoke void @_ZN4base8internal8LockImpl6UnlockEv(ptr noundef nonnull align 8 dereferenceable(40) %1)
          to label %_ZN4base8AutoLockD2Ev.exit unwind label %8

8:                                                ; preds = %7
  %9 = landingpad { ptr, i32 }
          catch ptr null
  %10 = extractvalue { ptr, i32 } %9, 0
  tail call void @__clang_call_terminate(ptr %10) #23
  unreachable

_ZN4base8AutoLockD2Ev.exit:                       ; preds = %7, %0
  %.0 = phi i64 [ 0, %0 ], [ %.1, %7 ]
  ret i64 %.0
}